target datalayout = "e-m:e-p270:32:32-p271:32:32-p272:64:64-i64:64-i128:128-f80:128-n8:16:32:64-S128"
target triple = "x86_64-pc-linux-gnu"

%struct.avifColorPrimariesTable = type { i16, ptr, [8 x float] }

; Function Attrs: nounwind uwtable
define internal i32 @matchesTo3RoundedPlaces(float noundef %0, float noundef %1) #0 {
  %3 = alloca float, align 4
  %4 = alloca float, align 4
  store float %0, ptr %3, align 4
  store float %1, ptr %4, align 4
  %5 = load float, ptr %3, align 4
  %6 = load float, ptr %4, align 4
  %7 = fsub float %5, %6
  %8 = call float @llvm.fabs.f32(float %7)
  %9 = fcmp olt float %8, 0x3F50624DE0000000
  %10 = zext i1 %9 to i32
  ret i32 %10
}

; Function Attrs: nounwind uwtable
define internal i32 @primariesMatch(ptr noundef %0, ptr noundef %1) #0 {
  %3 = alloca ptr, align 8
  %4 = alloca ptr, align 8
  store ptr %0, ptr %3, align 8
  store ptr %1, ptr %4, align 8
  %5 = load ptr, ptr %3, align 8
  %6 = getelementptr inbounds float, ptr %5, i64 0
  %7 = load float, ptr %6, align 4
  %8 = load ptr, ptr %4, align 8
  %9 = getelementptr inbounds float, ptr %8, i64 0
  %10 = load float, ptr %9, align 4
  %11 = call i32 @matchesTo3RoundedPlaces(float noundef %7, float noundef %10)
  %12 = icmp ne i32 %11, 0
  br i1 %12, label %13, label %76

13:                                               ; preds = %2
  %14 = load ptr, ptr %3, align 8
  %15 = getelementptr inbounds float, ptr %14, i64 1
  %16 = load float, ptr %15, align 4
  %17 = load ptr, ptr %4, align 8
  %18 = getelementptr inbounds float, ptr %17, i64 1
  %19 = load float, ptr %18, align 4
  %20 = call i32 @matchesTo3RoundedPlaces(float noundef %16, float noundef %19)
  %21 = icmp ne i32 %20, 0
  br i1 %21, label %22, label %76

22:                                               ; preds = %13
  %23 = load ptr, ptr %3, align 8
  %24 = getelementptr inbounds float, ptr %23, i64 2
  %25 = load float, ptr %24, align 4
  %26 = load ptr, ptr %4, align 8
  %27 = getelementptr inbounds float, ptr %26, i64 2
  %28 = load float, ptr %27, align 4
  %29 = call i32 @matchesTo3RoundedPlaces(float noundef %25, float noundef %28)
  %30 = icmp ne i32 %29, 0
  br i1 %30, label %31, label %76

31:                                               ; preds = %22
  %32 = load ptr, ptr %3, align 8
  %33 = getelementptr inbounds float, ptr %32, i64 3
  %34 = load float, ptr %33, align 4
  %35 = load ptr, ptr %4, align 8
  %36 = getelementptr inbounds float, ptr %35, i64 3
  %37 = load float, ptr %36, align 4
  %38 = call i32 @matchesTo3RoundedPlaces(float noundef %34, float noundef %37)
  %39 = icmp ne i32 %38, 0
  br i1 %39, label %40, label %76

40:                                               ; preds = %31
  %41 = load ptr, ptr %3, align 8
  %42 = getelementptr inbounds float, ptr %41, i64 4
  %43 = load float, ptr %42, align 4
  %44 = load ptr, ptr %4, align 8
  %45 = getelementptr inbounds float, ptr %44, i64 4
  %46 = load float, ptr %45, align 4
  %47 = call i32 @matchesTo3RoundedPlaces(float noundef %43, float noundef %46)
  %48 = icmp ne i32 %47, 0
  br i1 %48, label %49, label %76

49:                                               ; preds = %40
  %50 = load ptr, ptr %3, align 8
  %51 = getelementptr inbounds float, ptr %50, i64 5
  %52 = load float, ptr %51, align 4
  %53 = load ptr, ptr %4, align 8
  %54 = getelementptr inbounds float, ptr %53, i64 5
  %55 = load float, ptr %54, align 4
  %56 = call i32 @matchesTo3RoundedPlaces(float noundef %52, float noundef %55)
  %57 = icmp ne i32 %56, 0
  br i1 %57, label %58, label %76

58:                                               ; preds = %49
  %59 = load ptr, ptr %3, align 8
  %60 = getelementptr inbounds float, ptr %59, i64 6
  %61 = load float, ptr %60, align 4
  %62 = load ptr, ptr %4, align 8
  %63 = getelementptr inbounds float, ptr %62, i64 6
  %64 = load float, ptr %63, align 4
  %65 = call i32 @matchesTo3RoundedPlaces(float noundef %61, float noundef %64)
  %66 = icmp ne i32 %65, 0
  br i1 %66, label %67, label %76

67:                                               ; preds = %58
  %68 = load ptr, ptr %3, align 8
  %69 = getelementptr inbounds float, ptr %68, i64 7
  %70 = load float, ptr %69, align 4
  %71 = load ptr, ptr %4, align 8
  %72 = getelementptr inbounds float, ptr %71, i64 7
  %73 = load float, ptr %72, align 4
  %74 = call i32 @matchesTo3RoundedPlaces(float noundef %70, float noundef %73)
  %75 = icmp ne i32 %74, 0
  br label %76

76:                                               ; preds = %67, %58, %49, %40, %31, %22, %13, %2
  %77 = phi i1 [ false, %58 ], [ false, %49 ], [ false, %40 ], [ false, %31 ], [ false, %22 ], [ false, %13 ], [ false, %2 ], [ %75, %67 ]
  %78 = zext i1 %77 to i32
  ret i32 %78
}

; Function Attrs: nounwind uwtable
define hidden zeroext i16 @avifColorPrimariesFind(ptr noundef %0, ptr noundef %1) #0 {
  %3 = alloca i16, align 2
  %4 = alloca ptr, align 8
  %5 = alloca ptr, align 8
  %6 = alloca i32, align 4
  store ptr %0, ptr %4, align 8
  store ptr %1, ptr %5, align 8
  %7 = load ptr, ptr %5, align 8
  %8 = icmp ne ptr %7, null
  br i1 %8, label %9, label %11

9:                                                ; preds = %2
  %10 = load ptr, ptr %5, align 8
  store ptr null, ptr %10, align 8
  br label %11

11:                                               ; preds = %9, %2
  store i32 0, ptr %6, align 4
  br label %12

12:                                               ; preds = %41, %11
  %13 = load i32, ptr %6, align 4
  %14 = icmp slt i32 %13, 11
  br i1 %14, label %15, label %44

15:                                               ; preds = %12
  %16 = load ptr, ptr %4, align 8
  %17 = load i32, ptr %6, align 4
  %18 = sext i32 %17 to i64
  %19 = getelementptr inbounds [11 x %struct.avifColorPrimariesTable], ptr @avifColorPrimariesTables, i64 0, i64 %18
  %20 = getelementptr inbounds nuw %struct.avifColorPrimariesTable, ptr %19, i32 0, i32 2
  %21 = getelementptr inbounds [8 x float], ptr %20, i64 0, i64 0
  %22 = call i32 @primariesMatch(ptr noundef %16, ptr noundef %21)
  %23 = icmp ne i32 %22, 0
  br i1 %23, label %24, label %40

24:                                               ; preds = %15
  %25 = load ptr, ptr %5, align 8
  %26 = icmp ne ptr %25, null
  br i1 %26, label %27, label %34

27:                                               ; preds = %24
  %28 = load i32, ptr %6, align 4
  %29 = sext i32 %28 to i64
  %30 = getelementptr inbounds [11 x %struct.avifColorPrimariesTable], ptr @avifColorPrimariesTables, i64 0, i64 %29
  %31 = getelementptr inbounds nuw %struct.avifColorPrimariesTable, ptr %30, i32 0, i32 1
  %32 = load ptr, ptr %31, align 8
  %33 = load ptr, ptr %5, align 8
  store ptr %32, ptr %33, align 8
  br label %34

34:                                               ; preds = %27, %24
  %35 = load i32, ptr %6, align 4
  %36 = sext i32 %35 to i64
  %37 = getelementptr inbounds [11 x %struct.avifColorPrimariesTable], ptr @avifColorPrimariesTables, i64 0, i64 %36
  %38 = getelementptr inbounds nuw %struct.avifColorPrimariesTable, ptr %37, i32 0, i32 0
  %39 = load i16, ptr %38, align 16
  store i16 %39, ptr %3, align 2
  br label %45

40:                                               ; preds = %15
  br label %41

41:                                               ; preds = %40
  %42 = load i32, ptr %6, align 4
  %43 = add nsw i32 %42, 1
  store i32 %43, ptr %6, align 4
  br label %12, !llvm.loop !6

44:                                               ; preds = %12
  store i16 0, ptr %3, align 2
  br label %45

45:                                               ; preds = %44, %34
  %46 = load i16, ptr %3, align 2
  ret i16 %46
}