; Function Attrs: nofree norecurse nosync nounwind memory(argmem: readwrite) uwtable
define hidden zeroext i16 @avifColorPrimariesFind(ptr nocapture noundef readonly %0, ptr noundef writeonly %1) local_unnamed_addr #0 {
  %.not = icmp eq ptr %1, null
  br i1 %.not, label %4, label %3

3:                                                ; preds = %2
  store ptr null, ptr %1, align 8
  br label %4

4:                                                ; preds = %3, %2
  %5 = load float, ptr %0, align 4
  %6 = getelementptr inbounds i8, ptr %0, i64 4
  %7 = getelementptr inbounds i8, ptr %0, i64 8
  %8 = getelementptr inbounds i8, ptr %0, i64 12
  %9 = getelementptr inbounds i8, ptr %0, i64 16
  %10 = getelementptr inbounds i8, ptr %0, i64 20
  %11 = getelementptr inbounds i8, ptr %0, i64 24
  %12 = getelementptr inbounds i8, ptr %0, i64 28
  br label %13

13:                                               ; preds = %4, %primariesMatch.exit.thread
  %indvars.iv = phi i64 [ 0, %4 ], [ %indvars.iv.next, %primariesMatch.exit.thread ]
  %14 = getelementptr inbounds [11 x %struct.avifColorPrimariesTable], ptr @avifColorPrimariesTables, i64 0, i64 %indvars.iv
  %15 = getelementptr inbounds nuw i8, ptr %14, i64 16
  %16 = load float, ptr %15, align 16
  %17 = fsub float %5, %16
  %18 = tail call float @llvm.fabs.f32(float %17)
  %19 = fcmp uge float %18, 0x3F50624DE0000000
  br i1 %19, label %primariesMatch.exit.thread, label %20

20:                                               ; preds = %13
  %21 = load float, ptr %6, align 4
  %22 = getelementptr inbounds i8, ptr %14, i64 20
  %23 = load float, ptr %22, align 4
  %24 = fsub float %21, %23
  %25 = tail call float @llvm.fabs.f32(float %24)
  %26 = fcmp uge float %25, 0x3F50624DE0000000
  br i1 %26, label %primariesMatch.exit.thread, label %27

27:                                               ; preds = %20
  %28 = load float, ptr %7, align 4
  %29 = getelementptr inbounds i8, ptr %14, i64 24
  %30 = load float, ptr %29, align 8
  %31 = fsub float %28, %30
  %32 = tail call float @llvm.fabs.f32(float %31)
  %33 = fcmp uge float %32, 0x3F50624DE0000000
  br i1 %33, label %primariesMatch.exit.thread, label %34

34:                                               ; preds = %27
  %35 = load float, ptr %8, align 4
  %36 = getelementptr inbounds i8, ptr %14, i64 28
  %37 = load float, ptr %36, align 4
  %38 = fsub float %35, %37
  %39 = tail call float @llvm.fabs.f32(float %38)
  %40 = fcmp uge float %39, 0x3F50624DE0000000
  br i1 %40, label %primariesMatch.exit.thread, label %41

41:                                               ; preds = %34
  %42 = load float, ptr %9, align 4
  %43 = getelementptr inbounds i8, ptr %14, i64 32
  %44 = load float, ptr %43, align 16
  %45 = fsub float %42, %44
  %46 = tail call float @llvm.fabs.f32(float %45)
  %47 = fcmp uge float %46, 0x3F50624DE0000000
  br i1 %47, label %primariesMatch.exit.thread, label %48

48:                                               ; preds = %41
  %49 = load float, ptr %10, align 4
  %50 = getelementptr inbounds i8, ptr %14, i64 36
  %51 = load float, ptr %50, align 4
  %52 = fsub float %49, %51
  %53 = tail call float @llvm.fabs.f32(float %52)
  %54 = fcmp uge float %53, 0x3F50624DE0000000
  br i1 %54, label %primariesMatch.exit.thread, label %55

55:                                               ; preds = %48
  %56 = load float, ptr %11, align 4
  %57 = getelementptr inbounds i8, ptr %14, i64 40
  %58 = load float, ptr %57, align 8
  %59 = fsub float %56, %58
  %60 = tail call float @llvm.fabs.f32(float %59)
  %61 = fcmp uge float %60, 0x3F50624DE0000000
  br i1 %61, label %primariesMatch.exit.thread, label %primariesMatch.exit

primariesMatch.exit:                              ; preds = %55
  %62 = load float, ptr %12, align 4
  %63 = getelementptr inbounds i8, ptr %14, i64 44
  %64 = load float, ptr %63, align 4
  %65 = fsub float %62, %64
  %66 = tail call float @llvm.fabs.f32(float %65)
  %67 = fcmp uge float %66, 0x3F50624DE0000000
  br i1 %67, label %primariesMatch.exit.thread, label %68

68:                                               ; preds = %primariesMatch.exit
  br i1 %.not, label %72, label %69

69:                                               ; preds = %68
  %70 = getelementptr inbounds nuw i8, ptr %14, i64 8
  %71 = load ptr, ptr %70, align 8
  store ptr %71, ptr %1, align 8
  br label %72

72:                                               ; preds = %69, %68
  %73 = load i16, ptr %14, align 16
  br label %.loopexit

primariesMatch.exit.thread:                       ; preds = %13, %20, %27, %34, %41, %48, %55, %primariesMatch.exit
  %indvars.iv.next = add nuw nsw i64 %indvars.iv, 1
  %exitcond.not = icmp eq i64 %indvars.iv.next, 11
  br i1 %exitcond.not, label %.loopexit, label %13, !llvm.loop !6

.loopexit:                                        ; preds = %primariesMatch.exit.thread, %72
  %.010 = phi i16 [ %73, %72 ], [ 0, %primariesMatch.exit.thread ]
  ret i16 %.010
}